; Function Attrs: nofree norecurse nosync nounwind memory(argmem: readwrite) uwtable
define internal range(i32 0, 2) i32 @rv40_v_loop_filter_strength(ptr noundef readonly captures(none) %0, i64 noundef %1, i32 noundef %2, i32 noundef %3, i32 noundef %4, ptr noundef captures(none) %5, ptr noundef writeonly captures(none) %6) #3 {
  br label %8

8:                                                ; preds = %7, %8
  %.0.i12 = phi i32 [ 0, %7 ], [ %24, %8 ]
  %.055.i11 = phi ptr [ %0, %7 ], [ %25, %8 ]
  %.059.i10 = phi i32 [ 0, %7 ], [ %23, %8 ]
  %.060.i9 = phi i32 [ 0, %7 ], [ %16, %8 ]
  %9 = getelementptr inbounds i8, ptr %.055.i11, i64 -2
  %10 = load i8, ptr %9, align 1, !tbaa !8
  %11 = zext i8 %10 to i32
  %12 = getelementptr inbounds i8, ptr %.055.i11, i64 -1
  %13 = load i8, ptr %12, align 1, !tbaa !8
  %14 = zext i8 %13 to i32
  %15 = add i32 %.060.i9, %11
  %16 = sub i32 %15, %14
  %17 = getelementptr inbounds nuw i8, ptr %.055.i11, i64 1
  %18 = load i8, ptr %17, align 1, !tbaa !8
  %19 = zext i8 %18 to i32
  %20 = load i8, ptr %.055.i11, align 1, !tbaa !8
  %21 = zext i8 %20 to i32
  %22 = add i32 %.059.i10, %19
  %23 = sub i32 %22, %21
  %24 = add nuw nsw i32 %.0.i12, 1
  %25 = getelementptr inbounds i8, ptr %.055.i11, i64 %1
  %exitcond.not = icmp eq i32 %24, 4
  br i1 %exitcond.not, label %26, label %8, !llvm.loop !34

26:                                               ; preds = %8
  %27 = tail call i32 @llvm.abs.i32(i32 %16, i1 true)
  %28 = shl i32 %2, 2
  %29 = icmp slt i32 %27, %28
  %30 = zext i1 %29 to i32
  store i32 %30, ptr %5, align 4, !tbaa !9
  %31 = tail call i32 @llvm.abs.i32(i32 %23, i1 true)
  %32 = icmp slt i32 %31, %28
  %33 = zext i1 %32 to i32
  store i32 %33, ptr %6, align 4, !tbaa !9
  %34 = load i32, ptr %5, align 4, !tbaa !9
  %.not.i = icmp ne i32 %34, 0
  %brmerge.i = select i1 %.not.i, i1 true, i1 %32
  %.not62.i = icmp ne i32 %4, 0
  %or.cond.i.not = and i1 %.not62.i, %brmerge.i
  br i1 %or.cond.i.not, label %.preheader, label %rv40_loop_filter_strength.exit

.preheader:                                       ; preds = %26, %.preheader
  %.1.i16 = phi i32 [ %51, %.preheader ], [ 0, %26 ]
  %.156.i15 = phi ptr [ %52, %.preheader ], [ %0, %26 ]
  %.057.i14 = phi i32 [ %50, %.preheader ], [ 0, %26 ]
  %.058.i13 = phi i32 [ %42, %.preheader ], [ 0, %26 ]
  %35 = getelementptr inbounds i8, ptr %.156.i15, i64 -2
  %36 = load i8, ptr %35, align 1, !tbaa !8
  %37 = zext i8 %36 to i32
  %38 = getelementptr inbounds i8, ptr %.156.i15, i64 -3
  %39 = load i8, ptr %38, align 1, !tbaa !8
  %40 = zext i8 %39 to i32
  %41 = add i32 %.058.i13, %37
  %42 = sub i32 %41, %40
  %43 = getelementptr inbounds nuw i8, ptr %.156.i15, i64 1
  %44 = load i8, ptr %43, align 1, !tbaa !8
  %45 = zext i8 %44 to i32
  %46 = getelementptr inbounds nuw i8, ptr %.156.i15, i64 2
  %47 = load i8, ptr %46, align 1, !tbaa !8
  %48 = zext i8 %47 to i32
  %49 = add i32 %.057.i14, %45
  %50 = sub i32 %49, %48
  %51 = add nuw nsw i32 %.1.i16, 1
  %52 = getelementptr inbounds i8, ptr %.156.i15, i64 %1
  %exitcond20.not = icmp eq i32 %51, 4
  br i1 %exitcond20.not, label %53, label %.preheader, !llvm.loop !35

53:                                               ; preds = %.preheader
  %54 = tail call i32 @llvm.abs.i32(i32 %42, i1 true)
  %55 = icmp slt i32 %54, %3
  %56 = select i1 %.not.i, i1 %55, i1 false
  %57 = tail call i32 @llvm.abs.i32(i32 %50, i1 true)
  %58 = icmp slt i32 %57, %3
  %59 = select i1 %56, i1 %32, i1 false
  %60 = select i1 %59, i1 %58, i1 false
  %61 = zext i1 %60 to i32
  br label %rv40_loop_filter_strength.exit

rv40_loop_filter_strength.exit:                   ; preds = %26, %53
  %.061.i = phi i32 [ %61, %53 ], [ 0, %26 ]
  ret i32 %.061.i
}